Certificate:
    Data:
        Version: 3 (0x2)
        Serial Number:
            f7:17:bd:17:7d:12:5e:83
    Signature Algorithm: sha1WithRSAEncryption
        Issuer: DC=org, DC=cilogon, C=US, O=CILogon, CN=CILogon Basic CA 1
        Validity
            Not Before: Jun  4 20:19:08 2010 GMT
            Not After : Jun  4 20:19:08 2030 GMT
        Subject: DC=org, DC=cilogon, C=US, O=CILogon, CN=CILogon Basic CA 1
        Subject Public Key Info:
            Public Key Algorithm: rsaEncryption
                Public-Key: (2048 bit)
                Modulus:
                    00:bf:11:22:be:55:ef:3c:fa:d5:39:6a:d0:6d:08:
                    14:a9:b4:94:7d:30:83:d7:cf:7e:bf:33:6b:db:2a:
                    ea:64:8b:31:8b:1e:51:8e:f2:9d:6d:30:da:d4:47:
                    c8:d0:33:96:cf:a2:4a:7b:25:4a:98:7f:3c:77:04:
                    79:5d:16:3e:d3:63:bf:30:52:58:02:a8:14:fa:28:
                    90:9f:d6:c9:16:95:26:85:ff:b2:f1:e5:b9:cd:4f:
                    fa:45:e9:59:32:10:cb:de:a6:9e:45:ca:db:5a:62:
                    b5:c7:98:1a:5a:3e:19:e4:25:9f:4e:8d:17:fc:43:
                    bf:40:73:2d:1c:9e:ba:39:57:63:b3:ec:b8:09:fd:
                    6e:fc:cd:18:57:3a:e4:94:42:50:ee:67:f2:fb:56:
                    f1:7b:ab:83:e7:98:54:be:67:04:a6:8c:95:af:09:
                    44:d8:f4:3d:d4:f9:e7:f6:46:5b:86:ad:c6:04:61:
                    fd:78:75:de:54:21:e0:a6:31:a0:29:aa:2e:5d:86:
                    8a:57:41:76:d0:d0:e5:a9:f5:04:5d:8c:1e:73:9c:
                    0f:bb:64:ad:25:78:c2:8c:98:87:79:91:f5:8f:70:
                    37:f5:89:61:d8:20:8f:48:42:83:c4:b2:2a:83:54:
                    bb:80:03:fe:f2:cb:68:f9:03:e5:27:93:44:ed:09:
                    8a:01
                Exponent: 65537 (0x10001)
        X509v3 extensions:
            X509v3 Basic Constraints: critical
                CA:TRUE
            X509v3 Key Usage: critical
                Certificate Sign, CRL Sign
            X509v3 Subject Key Identifier: 
                9A:31:C0:35:BF:6A:CE:98:27:84:AF:24:3D:C9:9C:B7:48:D2:D6:3B
            X509v3 Authority Key Identifier: 
                keyid:9A:31:C0:35:BF:6A:CE:98:27:84:AF:24:3D:C9:9C:B7:48:D2:D6:3B

            X509v3 Subject Alternative Name: 
                email:ca@cilogon.org
    Signature Algorithm: sha1WithRSAEncryption
         90:c5:e4:85:27:16:23:57:83:17:0b:2f:8a:c3:59:eb:73:38:
         ac:38:ae:7b:a5:fd:ad:93:a1:b1:76:94:92:f5:57:0d:1c:f9:
         87:e2:f5:05:03:25:bd:08:5e:14:17:1b:5c:de:e5:f9:8a:96:
         96:0e:48:e9:e5:c1:c2:96:08:03:22:00:8e:b3:5b:92:d1:16:
         b5:c8:bf:21:1b:71:4b:38:be:a0:38:b9:02:5b:90:92:04:80:
         dc:3d:74:64:4d:b2:e8:cd:7c:2f:c8:62:9a:f9:62:25:e7:e7:
         30:70:6d:cd:5e:63:03:42:bd:3c:b8:a2:b2:3b:6f:8a:35:f0:
         bf:b1:6e:52:82:1d:1b:35:f3:27:2f:0d:2b:16:fa:20:81:9d:
         a3:0f:4c:a1:23:7a:c9:1b:7f:16:3d:38:e4:89:92:ad:c6:27:
         b4:4e:21:95:39:13:65:89:4e:63:80:1f:4b:3d:6f:00:17:cd:
         d0:7e:2d:7a:0f:7b:95:65:17:68:6e:9b:5a:23:be:b8:ca:7d:
         d1:60:c8:96:c2:b9:f7:60:92:88:79:a8:52:ad:90:c0:a3:66:
         1e:33:77:41:7d:91:6c:b1:3f:3f:4e:78:0d:94:c6:67:a5:64:
         bb:ef:12:86:90:7b:d5:0b:f6:b8:c9:00:cf:43:56:6a:90:63:
         b1:2f:6f:51
-----BEGIN CERTIFICATE-----
MIID1TCCAr2gAwIBAgIJAPcXvRd9El6DMA0GCSqGSIb3DQEBBQUAMGoxEzARBgoJ
kiaJk/IsZAEZFgNvcmcxFzAVBgoJkiaJk/IsZAEZFgdjaWxvZ29uMQswCQYDVQQG
EwJVUzEQMA4GA1UEChMHQ0lMb2dvbjEbMBkGA1UEAxMSQ0lMb2dvbiBCYXNpYyBD
QSAxMB4XDTEwMDYwNDIwMTkwOFoXDTMwMDYwNDIwMTkwOFowajETMBEGCgmSJomT
8ixkARkWA29yZzEXMBUGCgmSJomT8ixkARkWB2NpbG9nb24xCzAJBgNVBAYTAlVT
MRAwDgYDVQQKEwdDSUxvZ29uMRswGQYDVQQDExJDSUxvZ29uIEJhc2ljIENBIDEw
ggEiMA0GCSqGSIb3DQEBAQUAA4IBDwAwggEKAoIBAQC/ESK+Ve88+tU5atBtCBSp
tJR9MIPXz36/M2vbKupkizGLHlGO8p1tMNrUR8jQM5bPokp7JUqYfzx3BHldFj7T
Y78wUlgCqBT6KJCf1skWlSaF/7Lx5bnNT/pF6VkyEMvepp5FyttaYrXHmBpaPhnk
JZ9OjRf8Q79Acy0cnro5V2Oz7LgJ/W78zRhXOuSUQlDuZ/L7VvF7q4PnmFS+ZwSm
jJWvCUTY9D3U+ef2RluGrcYEYf14dd5UIeCmMaApqi5dhopXQXbQ0OWp9QRdjB5z
nA+7ZK0leMKMmId5kfWPcDf1iWHYII9IQoPEsiqDVLuAA/7yy2j5A+Unk0TtCYoB
AgMBAAGjfjB8MA8GA1UdEwEB/wQFMAMBAf8wDgYDVR0PAQH/BAQDAgEGMB0GA1Ud
DgQWBBSaMcA1v2rOmCeEryQ9yZy3SNLWOzAfBgNVHSMEGDAWgBSaMcA1v2rOmCeE
ryQ9yZy3SNLWOzAZBgNVHREEEjAQgQ5jYUBjaWxvZ29uLm9yZzANBgkqhkiG9w0B
AQUFAAOCAQEAkMXkhScWI1eDFwsvisNZ63M4rDiue6X9rZOhsXaUkvVXDRz5h+L1
BQMlvQheFBcbXN7l+YqWlg5I6eXBwpYIAyIAjrNbktEWtci/IRtxSzi+oDi5AluQ
kgSA3D10ZE2y6M18L8himvliJefnMHBtzV5jA0K9PLiisjtvijXwv7FuUoIdGzXz
Jy8NKxb6IIGdow9MoSN6yRt/Fj045ImSrcYntE4hlTkTZYlOY4AfSz1vABfN0H4t
eg97lWUXaG6bWiO+uMp90WDIlsK592CSiHmoUq2QwKNmHjN3QX2RbLE/P054DZTG
Z6Vku+8ShpB71Qv2uMkAz0NWapBjsS9vUQ==
-----END CERTIFICATE-----

